target datalayout = "e-m:e-p270:32:32-p271:32:32-p272:64:64-i64:64-i128:128-f80:128-n8:16:32:64-S128"
target triple = "x86_64-pc-linux-gnu"

%struct.buf_mem_st = type { i64, ptr, i64, i64 }

@bio_err = external global ptr, align 8
@.str.167 = private unnamed_addr constant [26 x i8] c"Error reading mem buffer\0A\00", align 1
@.str.168 = private unnamed_addr constant [36 x i8] c"Error writing to output file: '%s'\0A\00", align 1

; Function Attrs: nounwind uwtable
define dso_local i32 @mem_bio_to_file(ptr noundef %0, ptr noundef %1, i32 noundef %2, i32 noundef %3) #0 {
  %5 = alloca ptr, align 8
  %6 = alloca ptr, align 8
  %7 = alloca i32, align 4
  %8 = alloca i32, align 4
  %9 = alloca i32, align 4
  %10 = alloca i32, align 4
  %11 = alloca ptr, align 8
  %12 = alloca ptr, align 8
  store ptr %0, ptr %5, align 8, !tbaa !35
  store ptr %1, ptr %6, align 8, !tbaa !9
  store i32 %2, ptr %7, align 4, !tbaa !25
  store i32 %3, ptr %8, align 4, !tbaa !25
  call void @llvm.lifetime.start.p0(i64 4, ptr %9) #12
  store i32 0, ptr %9, align 4, !tbaa !25
  call void @llvm.lifetime.start.p0(i64 4, ptr %10) #12
  store i32 0, ptr %10, align 4, !tbaa !25
  call void @llvm.lifetime.start.p0(i64 8, ptr %11) #12
  store ptr null, ptr %11, align 8, !tbaa !35
  call void @llvm.lifetime.start.p0(i64 8, ptr %12) #12
  store ptr null, ptr %12, align 8, !tbaa !181
  %13 = load ptr, ptr %5, align 8, !tbaa !35
  %14 = call i64 @BIO_ctrl(ptr noundef %13, i32 noundef 115, i64 noundef 0, ptr noundef %12)
  %15 = trunc i64 %14 to i32
  store i32 %15, ptr %9, align 4, !tbaa !25
  %16 = load i32, ptr %9, align 4, !tbaa !25
  %17 = icmp sle i32 %16, 0
  br i1 %17, label %18, label %21

18:                                               ; preds = %4
  %19 = load ptr, ptr @bio_err, align 8, !tbaa !35
  %20 = call i32 @BIO_puts(ptr noundef %19, ptr noundef @.str.167)
  br label %54

21:                                               ; preds = %4
  %22 = load ptr, ptr %6, align 8, !tbaa !9
  %23 = load i32, ptr %7, align 4, !tbaa !25
  %24 = load i32, ptr %8, align 4, !tbaa !25
  %25 = call ptr @bio_open_owner(ptr noundef %22, i32 noundef %23, i32 noundef %24)
  store ptr %25, ptr %11, align 8, !tbaa !35
  %26 = load ptr, ptr %11, align 8, !tbaa !35
  %27 = icmp eq ptr %26, null
  br i1 %27, label %28, label %29

28:                                               ; preds = %21
  br label %54

29:                                               ; preds = %21
  %30 = load ptr, ptr %11, align 8, !tbaa !35
  %31 = load ptr, ptr %12, align 8, !tbaa !181
  %32 = getelementptr inbounds nuw %struct.buf_mem_st, ptr %31, i32 0, i32 1
  %33 = load ptr, ptr %32, align 8, !tbaa !183
  %34 = load ptr, ptr %12, align 8, !tbaa !181
  %35 = getelementptr inbounds nuw %struct.buf_mem_st, ptr %34, i32 0, i32 0
  %36 = load i64, ptr %35, align 8, !tbaa !185
  %37 = trunc i64 %36 to i32
  %38 = call i32 @BIO_write(ptr noundef %30, ptr noundef %33, i32 noundef %37)
  store i32 %38, ptr %9, align 4, !tbaa !25
  %39 = load i32, ptr %9, align 4, !tbaa !25
  %40 = icmp slt i32 %39, 0
  br i1 %40, label %48, label %41

41:                                               ; preds = %29
  %42 = load i32, ptr %9, align 4, !tbaa !25
  %43 = sext i32 %42 to i64
  %44 = load ptr, ptr %12, align 8, !tbaa !181
  %45 = getelementptr inbounds nuw %struct.buf_mem_st, ptr %44, i32 0, i32 0
  %46 = load i64, ptr %45, align 8, !tbaa !185
  %47 = icmp ne i64 %43, %46
  br i1 %47, label %48, label %52

48:                                               ; preds = %41, %29
  %49 = load ptr, ptr @bio_err, align 8, !tbaa !35
  %50 = load ptr, ptr %6, align 8, !tbaa !9
  %51 = call i32 (ptr, ptr, ...) @BIO_printf(ptr noundef %49, ptr noundef @.str.168, ptr noundef %50)
  br label %53

52:                                               ; preds = %41
  store i32 1, ptr %10, align 4, !tbaa !25
  br label %53

53:                                               ; preds = %52, %48
  br label %54

54:                                               ; preds = %53, %28, %18
  %55 = load i32, ptr %10, align 4, !tbaa !25
  %56 = icmp ne i32 %55, 0
  br i1 %56, label %59, label %57

57:                                               ; preds = %54
  %58 = load ptr, ptr @bio_err, align 8, !tbaa !35
  call void @ERR_print_errors(ptr noundef %58)
  br label %59

59:                                               ; preds = %57, %54
  %60 = load ptr, ptr %11, align 8, !tbaa !35
  call void @BIO_free_all(ptr noundef %60)
  %61 = load i32, ptr %10, align 4, !tbaa !25
  call void @llvm.lifetime.end.p0(i64 8, ptr %12) #12
  call void @llvm.lifetime.end.p0(i64 8, ptr %11) #12
  call void @llvm.lifetime.end.p0(i64 4, ptr %10) #12
  call void @llvm.lifetime.end.p0(i64 4, ptr %9) #12
  ret i32 %61
}