; Function Attrs: nounwind uwtable
define dso_local range(i32 0, 2) i32 @mem_bio_to_file(ptr noundef %0, ptr noundef %1, i32 noundef %2, i32 noundef %3) local_unnamed_addr #0 {
  %5 = alloca ptr, align 8
  call void @llvm.lifetime.start.p0(i64 8, ptr nonnull %5) #27
  store ptr null, ptr %5, align 8, !tbaa !103
  %6 = call i64 @BIO_ctrl(ptr noundef %0, i32 noundef 115, i64 noundef 0, ptr noundef nonnull %5) #27
  %7 = trunc i64 %6 to i32
  %8 = icmp slt i32 %7, 1
  br i1 %8, label %9, label %12

9:                                                ; preds = %4
  %10 = load ptr, ptr @bio_err, align 8, !tbaa !26
  %11 = call i32 @BIO_puts(ptr noundef %10, ptr noundef nonnull @.str.167) #27
  br label %30

12:                                               ; preds = %4
  %13 = call ptr @bio_open_owner(ptr noundef %1, i32 noundef %2, i32 noundef %3)
  %14 = icmp eq ptr %13, null
  br i1 %14, label %30, label %15

15:                                               ; preds = %12
  %16 = load ptr, ptr %5, align 8, !tbaa !103
  %17 = getelementptr inbounds nuw i8, ptr %16, i64 8
  %18 = load ptr, ptr %17, align 8, !tbaa !105
  %19 = load i64, ptr %16, align 8, !tbaa !107
  %20 = trunc i64 %19 to i32
  %21 = call i32 @BIO_write(ptr noundef nonnull %13, ptr noundef %18, i32 noundef %20) #27
  %22 = icmp slt i32 %21, 0
  br i1 %22, label %27, label %23

23:                                               ; preds = %15
  %24 = zext nneg i32 %21 to i64
  %25 = load ptr, ptr %5, align 8, !tbaa !103
  %26 = load i64, ptr %25, align 8, !tbaa !107
  %.not = icmp eq i64 %26, %24
  br i1 %.not, label %32, label %27

27:                                               ; preds = %23, %15
  %28 = load ptr, ptr @bio_err, align 8, !tbaa !26
  %29 = call i32 (ptr, ptr, ...) @BIO_printf(ptr noundef %28, ptr noundef nonnull @.str.168, ptr noundef %1) #27
  br label %30

30:                                               ; preds = %9, %12, %27
  %.0.ph = phi ptr [ %13, %27 ], [ null, %12 ], [ null, %9 ]
  %31 = load ptr, ptr @bio_err, align 8, !tbaa !26
  call void @ERR_print_errors(ptr noundef %31) #27
  br label %32

32:                                               ; preds = %23, %30
  %.021 = phi ptr [ %.0.ph, %30 ], [ %13, %23 ]
  %.01219 = phi i32 [ 0, %30 ], [ 1, %23 ]
  call void @BIO_free_all(ptr noundef %.021) #27
  call void @llvm.lifetime.end.p0(i64 8, ptr nonnull %5) #27
  ret i32 %.01219
}